target datalayout = "e-m:e-p270:32:32-p271:32:32-p272:64:64-i64:64-i128:128-f80:128-n8:16:32:64-S128"
target triple = "x86_64-pc-linux-gnu"

%struct.PJconsts = type { ptr, ptr, ptr, ptr, ptr, ptr, ptr, ptr, ptr, ptr, ptr, ptr, i32, ptr, ptr, ptr, ptr, ptr, ptr, ptr, ptr, double, double, double, double, double, double, double, double, double, double, double, double, double, double, double, double, double, double, double, double, double, double, i32, i32, i32, i32, i32, i32, i32, i32, i32, i32, i32, ptr, ptr, ptr, ptr, ptr, ptr, double, double, double, double, double, double, double, double, double, double, double, i32, [7 x double], i32, ptr, ptr, double, double, i32, [4 x i8], %"class.std::shared_ptr", i8, double, i8, %"class.std::__cxx11::basic_string", %"class.std::__cxx11::basic_string", %"class.std::__cxx11::basic_string", i8, %"class.std::vector", i32, %"class.std::vector.3", i32, i8, i8, i8, ptr }
%"class.std::shared_ptr" = type { %"class.std::__shared_ptr" }
%"class.std::__shared_ptr" = type { ptr, %"class.std::__shared_count" }
%"class.std::__shared_count" = type { ptr }
%"class.std::__cxx11::basic_string" = type { %"struct.std::__cxx11::basic_string<char>::_Alloc_hider", i64, %union.anon }
%"struct.std::__cxx11::basic_string<char>::_Alloc_hider" = type { ptr }
%union.anon = type { i64, [8 x i8] }
%"class.std::vector" = type { %"struct.std::_Vector_base" }
%"struct.std::_Vector_base" = type { %"struct.std::_Vector_base<osgeo::proj::operation::GridDescription, std::allocator<osgeo::proj::operation::GridDescription>>::_Vector_impl" }
%"struct.std::_Vector_base<osgeo::proj::operation::GridDescription, std::allocator<osgeo::proj::operation::GridDescription>>::_Vector_impl" = type { %"struct.std::_Vector_base<osgeo::proj::operation::GridDescription, std::allocator<osgeo::proj::operation::GridDescription>>::_Vector_impl_data" }
%"struct.std::_Vector_base<osgeo::proj::operation::GridDescription, std::allocator<osgeo::proj::operation::GridDescription>>::_Vector_impl_data" = type { ptr, ptr, ptr }
%"class.std::vector.3" = type { %"struct.std::_Vector_base.4" }
%"struct.std::_Vector_base.4" = type { %"struct.std::_Vector_base<PJCoordOperation, std::allocator<PJCoordOperation>>::_Vector_impl" }
%"struct.std::_Vector_base<PJCoordOperation, std::allocator<PJCoordOperation>>::_Vector_impl" = type { %"struct.std::_Vector_base<PJCoordOperation, std::allocator<PJCoordOperation>>::_Vector_impl_data" }
%"struct.std::_Vector_base<PJCoordOperation, std::allocator<PJCoordOperation>>::_Vector_impl_data" = type { ptr, ptr, ptr }
%"struct.(anonymous namespace)::pj_urm5" = type { double, double, double, double }
%struct.PJ_XY = type { double, double }
%struct.PJ_LP = type { double, double }

; Function Attrs: mustprogress uwtable
define internal { double, double } @_ZL14urm5_s_forward5PJ_LPP8PJconsts(double %0, double %1, ptr noundef %2) #0 {
  %4 = alloca %struct.PJ_XY, align 8
  %5 = alloca %struct.PJ_LP, align 8
  %6 = alloca ptr, align 8
  %7 = alloca ptr, align 8
  %8 = alloca double, align 8
  %9 = getelementptr inbounds nuw { double, double }, ptr %5, i32 0, i32 0
  store double %0, ptr %9, align 8
  %10 = getelementptr inbounds nuw { double, double }, ptr %5, i32 0, i32 1
  store double %1, ptr %10, align 8
  store ptr %2, ptr %6, align 8, !tbaa !3
  call void @llvm.memset.p0.i64(ptr align 8 %4, i8 0, i64 16, i1 false)
  call void @llvm.lifetime.start.p0(i64 8, ptr %7) #7
  %11 = load ptr, ptr %6, align 8, !tbaa !3
  %12 = getelementptr inbounds nuw %struct.PJconsts, ptr %11, i32 0, i32 11
  %13 = load ptr, ptr %12, align 8, !tbaa !43
  store ptr %13, ptr %7, align 8, !tbaa !41
  call void @llvm.lifetime.start.p0(i64 8, ptr %8) #7
  %14 = load ptr, ptr %6, align 8, !tbaa !3
  %15 = getelementptr inbounds nuw %struct.PJconsts, ptr %14, i32 0, i32 0
  %16 = load ptr, ptr %15, align 8, !tbaa !44
  %17 = load ptr, ptr %7, align 8, !tbaa !41
  %18 = getelementptr inbounds nuw %"struct.(anonymous namespace)::pj_urm5", ptr %17, i32 0, i32 3
  %19 = load double, ptr %18, align 8, !tbaa !47
  %20 = getelementptr inbounds nuw %struct.PJ_LP, ptr %5, i32 0, i32 1
  %21 = load double, ptr %20, align 8, !tbaa !57
  %22 = call double @sin(double noundef %21) #7, !tbaa !51
  %23 = fmul double %19, %22
  %24 = call noundef double @_Z5aasinP6pj_ctxd(ptr noundef %16, double noundef %23)
  %25 = getelementptr inbounds nuw %struct.PJ_LP, ptr %5, i32 0, i32 1
  store double %24, ptr %25, align 8, !tbaa !57
  store double %24, ptr %8, align 8, !tbaa !50
  %26 = load ptr, ptr %7, align 8, !tbaa !41
  %27 = getelementptr inbounds nuw %"struct.(anonymous namespace)::pj_urm5", ptr %26, i32 0, i32 0
  %28 = load double, ptr %27, align 8, !tbaa !52
  %29 = getelementptr inbounds nuw %struct.PJ_LP, ptr %5, i32 0, i32 0
  %30 = load double, ptr %29, align 8, !tbaa !59
  %31 = fmul double %28, %30
  %32 = getelementptr inbounds nuw %struct.PJ_LP, ptr %5, i32 0, i32 1
  %33 = load double, ptr %32, align 8, !tbaa !57
  %34 = call double @cos(double noundef %33) #7, !tbaa !51
  %35 = fmul double %31, %34
  %36 = getelementptr inbounds nuw %struct.PJ_XY, ptr %4, i32 0, i32 0
  store double %35, ptr %36, align 8, !tbaa !60
  %37 = load double, ptr %8, align 8, !tbaa !50
  %38 = load double, ptr %8, align 8, !tbaa !50
  %39 = fmul double %38, %37
  store double %39, ptr %8, align 8, !tbaa !50
  %40 = getelementptr inbounds nuw %struct.PJ_LP, ptr %5, i32 0, i32 1
  %41 = load double, ptr %40, align 8, !tbaa !57
  %42 = load double, ptr %8, align 8, !tbaa !50
  %43 = load ptr, ptr %7, align 8, !tbaa !41
  %44 = getelementptr inbounds nuw %"struct.(anonymous namespace)::pj_urm5", ptr %43, i32 0, i32 2
  %45 = load double, ptr %44, align 8, !tbaa !49
  %46 = call double @llvm.fmuladd.f64(double %42, double %45, double 1.000000e+00)
  %47 = fmul double %41, %46
  %48 = load ptr, ptr %7, align 8, !tbaa !41
  %49 = getelementptr inbounds nuw %"struct.(anonymous namespace)::pj_urm5", ptr %48, i32 0, i32 1
  %50 = load double, ptr %49, align 8, !tbaa !53
  %51 = fmul double %47, %50
  %52 = getelementptr inbounds nuw %struct.PJ_XY, ptr %4, i32 0, i32 1
  store double %51, ptr %52, align 8, !tbaa !62
  call void @llvm.lifetime.end.p0(i64 8, ptr %8) #7
  call void @llvm.lifetime.end.p0(i64 8, ptr %7) #7
  %53 = load { double, double }, ptr %4, align 8
  ret { double, double } %53
}