; Function Attrs: mustprogress uwtable
define internal { double, double } @_ZL14urm5_s_forward5PJ_LPP8PJconsts(double %0, double %1, ptr noundef readonly captures(none) %2) #0 {
  %4 = getelementptr inbounds nuw i8, ptr %2, i64 88
  %5 = load ptr, ptr %4, align 8, !tbaa !40
  %6 = load ptr, ptr %2, align 8, !tbaa !41
  %7 = getelementptr inbounds nuw i8, ptr %5, i64 24
  %8 = load double, ptr %7, align 8, !tbaa !43
  %9 = tail call double @sin(double noundef %1) #6, !tbaa !46
  %10 = fmul double %8, %9
  %11 = tail call noundef double @_Z5aasinP6pj_ctxd(ptr noundef %6, double noundef %10)
  %12 = load double, ptr %5, align 8, !tbaa !47
  %13 = fmul double %0, %12
  %14 = tail call double @cos(double noundef %11) #6, !tbaa !46
  %15 = fmul double %13, %14
  %16 = fmul double %11, %11
  %17 = getelementptr inbounds nuw i8, ptr %5, i64 16
  %18 = load double, ptr %17, align 8, !tbaa !45
  %19 = tail call double @llvm.fmuladd.f64(double %16, double %18, double 1.000000e+00)
  %20 = fmul double %11, %19
  %21 = getelementptr inbounds nuw i8, ptr %5, i64 8
  %22 = load double, ptr %21, align 8, !tbaa !48
  %23 = fmul double %22, %20
  %.fca.0.insert = insertvalue { double, double } poison, double %15, 0
  %.fca.1.insert = insertvalue { double, double } %.fca.0.insert, double %23, 1
  ret { double, double } %.fca.1.insert
}